target datalayout = "e-m:e-p270:32:32-p271:32:32-p272:64:64-i64:64-i128:128-f80:128-n8:16:32:64-S128"
target triple = "x86_64-pc-linux-gnu"

%struct.ClusterInfo = type { %struct.ControlData, ptr, %struct.DbInfoArr, ptr, ptr, ptr, ptr, ptr, i16, i32, [64 x i8], i32, ptr, i32 }
%struct.ControlData = type { i32, i32, [25 x i8], i32, i32, i32, i32, i32, i32, i32, i32, i32, i32, i32, i32, i32, i32, i32, i32, i8, i8, i32 }
%struct.DbInfoArr = type { ptr, i32 }

@.str.1 = private unnamed_addr constant [23 x i8] c"pg_upgrade_utility.log\00", align 1
@old_cluster = dso_local global %struct.ClusterInfo zeroinitializer, align 8
@new_cluster = dso_local global %struct.ClusterInfo zeroinitializer, align 8
@.str.11 = private unnamed_addr constant [6 x i8] c"%s/%s\00", align 1
@.str.80 = private unnamed_addr constant [29 x i8] c"Copying old %s to new server\00", align 1
@.str.81 = private unnamed_addr constant [17 x i8] c"cp -Rf \22%s\22 \22%s\22\00", align 1
@.str.82 = private unnamed_addr constant [27 x i8] c"Deleting files from new %s\00", align 1
@.str.83 = private unnamed_addr constant [32 x i8] c"could not delete directory \22%s\22\00", align 1

; Function Attrs: nounwind uwtable
define internal void @remove_new_subdir(ptr noundef %0, i1 noundef zeroext %1) #0 {
  %3 = alloca ptr, align 8
  %4 = alloca i8, align 1
  %5 = alloca [1024 x i8], align 16
  store ptr %0, ptr %3, align 8
  %6 = zext i1 %1 to i8
  store i8 %6, ptr %4, align 1
  call void @llvm.lifetime.start.p0(i64 1024, ptr %5) #7
  %7 = load ptr, ptr %3, align 8
  call void (ptr, ...) @prep_status(ptr noundef @.str.82, ptr noundef %7)
  %8 = getelementptr inbounds [1024 x i8], ptr %5, i64 0, i64 0
  %9 = load ptr, ptr getelementptr inbounds nuw (%struct.ClusterInfo, ptr @new_cluster, i32 0, i32 3), align 8
  %10 = load ptr, ptr %3, align 8
  %11 = call i32 (ptr, i64, ptr, ...) @pg_snprintf(ptr noundef %8, i64 noundef 1024, ptr noundef @.str.11, ptr noundef %9, ptr noundef %10)
  %12 = getelementptr inbounds [1024 x i8], ptr %5, i64 0, i64 0
  %13 = load i8, ptr %4, align 1, !range !4, !noundef !5
  %14 = trunc i8 %13 to i1
  %15 = call zeroext i1 @rmtree(ptr noundef %12, i1 noundef zeroext %14)
  br i1 %15, label %18, label %16

16:                                               ; preds = %2
  %17 = getelementptr inbounds [1024 x i8], ptr %5, i64 0, i64 0
  call void (ptr, ...) @pg_fatal(ptr noundef @.str.83, ptr noundef %17) #8
  unreachable

18:                                               ; preds = %2
  call void @check_ok()
  call void @llvm.lifetime.end.p0(i64 1024, ptr %5) #7
  ret void
}

; Function Attrs: nounwind uwtable
define internal void @copy_subdir_files(ptr noundef %0, ptr noundef %1) #0 {
  %3 = alloca ptr, align 8
  %4 = alloca ptr, align 8
  %5 = alloca [1024 x i8], align 16
  %6 = alloca [1024 x i8], align 16
  store ptr %0, ptr %3, align 8
  store ptr %1, ptr %4, align 8
  call void @llvm.lifetime.start.p0(i64 1024, ptr %5) #7
  call void @llvm.lifetime.start.p0(i64 1024, ptr %6) #7
  %7 = load ptr, ptr %4, align 8
  call void @remove_new_subdir(ptr noundef %7, i1 noundef zeroext true)
  %8 = getelementptr inbounds [1024 x i8], ptr %5, i64 0, i64 0
  %9 = load ptr, ptr getelementptr inbounds nuw (%struct.ClusterInfo, ptr @old_cluster, i32 0, i32 3), align 8
  %10 = load ptr, ptr %3, align 8
  %11 = call i32 (ptr, i64, ptr, ...) @pg_snprintf(ptr noundef %8, i64 noundef 1024, ptr noundef @.str.11, ptr noundef %9, ptr noundef %10)
  %12 = getelementptr inbounds [1024 x i8], ptr %6, i64 0, i64 0
  %13 = load ptr, ptr getelementptr inbounds nuw (%struct.ClusterInfo, ptr @new_cluster, i32 0, i32 3), align 8
  %14 = load ptr, ptr %4, align 8
  %15 = call i32 (ptr, i64, ptr, ...) @pg_snprintf(ptr noundef %12, i64 noundef 1024, ptr noundef @.str.11, ptr noundef %13, ptr noundef %14)
  %16 = load ptr, ptr %3, align 8
  call void (ptr, ...) @prep_status(ptr noundef @.str.80, ptr noundef %16)
  %17 = getelementptr inbounds [1024 x i8], ptr %5, i64 0, i64 0
  %18 = getelementptr inbounds [1024 x i8], ptr %6, i64 0, i64 0
  %19 = call zeroext i1 (ptr, ptr, i1, i1, ptr, ...) @exec_prog(ptr noundef @.str.1, ptr noundef null, i1 noundef zeroext true, i1 noundef zeroext true, ptr noundef @.str.81, ptr noundef %17, ptr noundef %18)
  call void @check_ok()
  call void @llvm.lifetime.end.p0(i64 1024, ptr %6) #7
  call void @llvm.lifetime.end.p0(i64 1024, ptr %5) #7
  ret void
}