; Function Attrs: nounwind uwtable
define internal fastcc void @copy_subdir_files(ptr noundef %0, ptr noundef %1) unnamed_addr #0 {
  %3 = alloca [1024 x i8], align 16
  %4 = alloca [1024 x i8], align 16
  %5 = alloca [1024 x i8], align 16
  call void @llvm.lifetime.start.p0(i64 1024, ptr nonnull %4) #9
  call void @llvm.lifetime.start.p0(i64 1024, ptr nonnull %5) #9
  call void @llvm.lifetime.start.p0(i64 1024, ptr nonnull %3) #9
  tail call void (ptr, ...) @prep_status(ptr noundef nonnull @.str.82, ptr noundef %1) #9
  %6 = load ptr, ptr getelementptr inbounds nuw (i8, ptr @new_cluster, i64 136), align 8
  %7 = call i32 (ptr, i64, ptr, ...) @pg_snprintf(ptr noundef nonnull %3, i64 noundef 1024, ptr noundef nonnull @.str.11, ptr noundef %6, ptr noundef %1) #9
  %8 = call zeroext i1 @rmtree(ptr noundef nonnull %3, i1 noundef zeroext true) #9
  br i1 %8, label %remove_new_subdir.exit, label %9

9:                                                ; preds = %2
  call void (ptr, ...) @pg_fatal(ptr noundef nonnull @.str.83, ptr noundef nonnull %3) #10
  unreachable

remove_new_subdir.exit:                           ; preds = %2
  call void @check_ok() #9
  call void @llvm.lifetime.end.p0(i64 1024, ptr nonnull %3) #9
  %10 = load ptr, ptr getelementptr inbounds nuw (i8, ptr @old_cluster, i64 136), align 8
  %11 = call i32 (ptr, i64, ptr, ...) @pg_snprintf(ptr noundef nonnull %4, i64 noundef 1024, ptr noundef nonnull @.str.11, ptr noundef %10, ptr noundef %0) #9
  %12 = load ptr, ptr getelementptr inbounds nuw (i8, ptr @new_cluster, i64 136), align 8
  %13 = call i32 (ptr, i64, ptr, ...) @pg_snprintf(ptr noundef nonnull %5, i64 noundef 1024, ptr noundef nonnull @.str.11, ptr noundef %12, ptr noundef %1) #9
  call void (ptr, ...) @prep_status(ptr noundef nonnull @.str.80, ptr noundef %0) #9
  %14 = call zeroext i1 (ptr, ptr, i1, i1, ptr, ...) @exec_prog(ptr noundef nonnull @.str.1, ptr noundef null, i1 noundef zeroext true, i1 noundef zeroext true, ptr noundef nonnull @.str.81, ptr noundef nonnull %4, ptr noundef nonnull %5) #9
  call void @check_ok() #9
  call void @llvm.lifetime.end.p0(i64 1024, ptr nonnull %5) #9
  call void @llvm.lifetime.end.p0(i64 1024, ptr nonnull %4) #9
  ret void
}